	.file	"lwp.c"
	.text
.Ltext0:
	.local	rootContext
	.comm	rootContext,704,32
	.local	tidRunning
	.comm	tidRunning,8,8
	.local	rootThread
	.comm	rootThread,8,8
	.data
	.align 32
	.type	RoundRobin, @object
	.size	RoundRobin, 40
RoundRobin:
	.quad	0
	.quad	0
	.quad	rr_admit
	.quad	rr_remove
	.quad	rr_next
	.align 8
	.type	currentScheduler, @object
	.size	currentScheduler, 8
currentScheduler:
	.quad	RoundRobin
	.local	rootOfSched
	.comm	rootOfSched,8,8
	.local	numberOfProcs
	.comm	numberOfProcs,8,8
	.text
.globl lwp_create
	.type	lwp_create, @function
lwp_create:
.LFB0:
	.file 1 "./lwp.c"
	.loc 1 23 0
	.cfi_startproc
	pushq	%rbp
	.cfi_def_cfa_offset 16
	.cfi_offset 6, -16
	movq	%rsp, %rbp
	.cfi_def_cfa_register 6
	pushq	%rbx
	subq	$600, %rsp
	movq	%rdi, -584(%rbp)
	movq	%rsi, -592(%rbp)
	movq	%rdx, -600(%rbp)
	.loc 1 32 0
	movl	tid.3311(%rip), %eax
	cmpl	$-4, %eax
	jbe	.L2
	.cfi_offset 3, -24
	.loc 1 33 0
	movq	$-1, %rax
	jmp	.L3
.L2:
	.loc 1 36 0
	movq	-600(%rbp), %rax
	addq	$102400, %rax
	movl	$8, %esi
	movq	%rax, %rdi
	call	calloc
	movq	%rax, -56(%rbp)
	.loc 1 38 0
	cmpq	$0, -56(%rbp)
	jne	.L4
	.loc 1 39 0
	movq	$-1, %rax
	jmp	.L3
.L4:
	.loc 1 42 0
	movl	$704, %esi
	movl	$1, %edi
	call	calloc
	movq	%rax, -32(%rbp)
	.loc 1 44 0
	movq	numberOfProcs(%rip), %rax
	addq	$1, %rax
	movq	%rax, numberOfProcs(%rip)
	.loc 1 45 0
	movl	tid.3311(%rip), %eax
	movslq	%eax, %rcx
	movq	-32(%rbp), %rdx
	movq	%rcx, (%rdx)
	addl	$1, %eax
	movl	%eax, tid.3311(%rip)
	.loc 1 46 0
	movq	-32(%rbp), %rax
	movq	-56(%rbp), %rdx
	movq	%rdx, 8(%rax)
	.loc 1 47 0
	movq	-600(%rbp), %rax
	leaq	102400(%rax), %rdx
	movq	-32(%rbp), %rax
	movq	%rdx, 16(%rax)
	.loc 1 48 0
	leaq	-576(%rbp), %rbx
	movl	$0, %eax
	movl	$64, %edx
	movq	%rbx, %rdi
	movq	%rdx, %rcx
	rep stosq
	movb	$127, -576(%rbp)
	movb	$3, -575(%rbp)
	movb	$-128, -552(%rbp)
	movb	$31, -551(%rbp)
	movb	$-1, -548(%rbp)
	movb	$-1, -547(%rbp)
	movb	$37, -400(%rbp)
	movb	$37, -399(%rbp)
	movb	$37, -398(%rbp)
	movb	$37, -397(%rbp)
	movb	$37, -396(%rbp)
	movb	$37, -395(%rbp)
	movb	$37, -394(%rbp)
	movb	$37, -393(%rbp)
	movb	$37, -392(%rbp)
	movb	$37, -391(%rbp)
	movb	$37, -390(%rbp)
	movb	$37, -389(%rbp)
	movb	$37, -388(%rbp)
	movb	$37, -387(%rbp)
	movb	$37, -386(%rbp)
	movb	$37, -385(%rbp)
	movb	$-1, -360(%rbp)
	movb	$-1, -355(%rbp)
	movq	-32(%rbp), %rax
	leaq	160(%rax), %rbx
	leaq	-576(%rbp), %rdx
	movl	$64, %eax
	movq	%rbx, %rdi
	movq	%rdx, %rsi
	movq	%rax, %rcx
	rep movsq
	.loc 1 50 0
	movq	-32(%rbp), %rax
	movq	8(%rax), %rax
	movq	-600(%rbp), %rdx
	addq	$102400, %rdx
	salq	$3, %rdx
	addq	%rdx, %rax
	movq	%rax, -48(%rbp)
	.loc 1 58 0
	subq	$8, -48(%rbp)
	.loc 1 59 0
	movl	$lwp_exit, %edx
	movq	-48(%rbp), %rax
	movq	%rdx, (%rax)
	.loc 1 60 0
	subq	$8, -48(%rbp)
	.loc 1 61 0
	movl	$lwp_exit, %edx
	movq	-48(%rbp), %rax
	movq	%rdx, (%rax)
	.loc 1 62 0
	movq	-48(%rbp), %rax
	movq	%rax, -40(%rbp)
	.loc 1 63 0
	subq	$8, -48(%rbp)
	.loc 1 64 0
	movq	-584(%rbp), %rdx
	movq	-48(%rbp), %rax
	movq	%rdx, (%rax)
	.loc 1 65 0
	subq	$8, -48(%rbp)
	.loc 1 66 0
	movq	-40(%rbp), %rdx
	movq	-48(%rbp), %rax
	movq	%rdx, (%rax)
	.loc 1 79 0
	movq	-32(%rbp), %rax
	movq	-48(%rbp), %rdx
	movq	%rdx, 24(%rax)
	.loc 1 80 0
	movq	-48(%rbp), %rdx
	movq	-32(%rbp), %rax
	movq	%rdx, 80(%rax)
	.loc 1 81 0
	movq	-48(%rbp), %rdx
	movq	-32(%rbp), %rax
	movq	%rdx, 88(%rax)
	.loc 1 84 0
	movq	-592(%rbp), %rdx
	movq	-32(%rbp), %rax
	movq	%rdx, 72(%rax)
	.loc 1 85 0
	movq	currentScheduler(%rip), %rax
	movq	16(%rax), %rdx
	movq	-32(%rbp), %rax
	movq	%rax, %rdi
	call	*%rdx
	.loc 1 86 0
	movq	rootThread(%rip), %rax
	movq	%rax, -24(%rbp)
	.loc 1 87 0
	movq	rootThread(%rip), %rax
	testq	%rax, %rax
	jne	.L10
	.loc 1 88 0
	movq	-32(%rbp), %rax
	movq	%rax, rootThread(%rip)
	jmp	.L6
.L8:
	.loc 1 92 0
	movq	-24(%rbp), %rax
	movq	672(%rax), %rax
	movq	%rax, -24(%rbp)
	jmp	.L7
.L10:
	.loc 1 91 0
	nop
.L7:
	movq	-24(%rbp), %rax
	movq	672(%rax), %rax
	testq	%rax, %rax
	jne	.L8
	.loc 1 94 0
	movq	-24(%rbp), %rax
	movq	-32(%rbp), %rdx
	movq	%rdx, 672(%rax)
.L6:
	.loc 1 98 0
	movq	-32(%rbp), %rax
	movq	(%rax), %rax
.L3:
	.loc 1 99 0
	addq	$600, %rsp
	popq	%rbx
	leave
	.cfi_def_cfa 7, 8
	ret
	.cfi_endproc
.LFE0:
	.size	lwp_create, .-lwp_create
.globl lwp_exit
	.type	lwp_exit, @function
lwp_exit:
.LFB1:
	.loc 1 101 0
	.cfi_startproc
	pushq	%rbp
	.cfi_def_cfa_offset 16
	.cfi_offset 6, -16
	movq	%rsp, %rbp
	.cfi_def_cfa_register 6
	subq	$32, %rsp
	.loc 1 105 0
	movq	currentScheduler(%rip), %rax
	movq	32(%rax), %rax
	call	*%rax
	movq	%rax, -24(%rbp)
	.loc 1 106 0
	movq	tidRunning(%rip), %rax
	movq	%rax, %rdi
	call	tid2thread
	movq	8(%rax), %rax
	movq	%rax, -16(%rbp)
	.loc 1 107 0
	movq	tidRunning(%rip), %rax
	movq	%rax, %rdi
	call	tid2thread
	movq	%rax, -8(%rbp)
	.loc 1 108 0
	cmpq	$0, -24(%rbp)
	je	.L12
	.loc 1 109 0
	movq	-24(%rbp), %rax
	movq	24(%rax), %rax
#APP
# 109 "./lwp.c" 1
	movq  %rax,%rsp
# 0 "" 2
	.loc 1 110 0
#NO_APP
	movq	-16(%rbp), %rdx
	movq	-8(%rbp), %rcx
	movq	-24(%rbp), %rax
	movq	%rcx, %rsi
	movq	%rax, %rdi
	call	lwp_exitOntoSafeStack
	jmp	.L14
.L12:
	.loc 1 113 0
	movq	rootContext+24(%rip), %rax
#APP
# 113 "./lwp.c" 1
	movq  %rax,%rsp
# 0 "" 2
	.loc 1 114 0
#NO_APP
	movq	-16(%rbp), %rdx
	movq	-8(%rbp), %rax
	movq	%rax, %rsi
	movl	$rootContext, %edi
	call	lwp_exitOntoSafeStack
.L14:
	.loc 1 118 0
	leave
	.cfi_def_cfa 7, 8
	ret
	.cfi_endproc
.LFE1:
	.size	lwp_exit, .-lwp_exit
.globl lwp_exitOntoSafeStack
	.type	lwp_exitOntoSafeStack, @function
lwp_exitOntoSafeStack:
.LFB2:
	.loc 1 120 0
	.cfi_startproc
	pushq	%rbp
	.cfi_def_cfa_offset 16
	.cfi_offset 6, -16
	movq	%rsp, %rbp
	.cfi_def_cfa_register 6
	subq	$48, %rsp
	movq	%rdi, -24(%rbp)
	movq	%rsi, -32(%rbp)
	movq	%rdx, -40(%rbp)
	.loc 1 123 0
	movq	currentScheduler(%rip), %rax
	movq	24(%rax), %rdx
	movq	-32(%rbp), %rax
	movq	%rax, %rdi
	call	*%rdx
	.loc 1 124 0
	movq	rootThread(%rip), %rax
	movq	%rax, -8(%rbp)
	.loc 1 125 0
	movq	rootThread(%rip), %rax
	cmpq	-32(%rbp), %rax
	jne	.L24
	.loc 1 126 0
	movq	rootThread(%rip), %rax
	movq	672(%rax), %rax
	movq	%rax, rootThread(%rip)
	jmp	.L17
.L20:
	.loc 1 130 0
	movq	-8(%rbp), %rax
	movq	672(%rax), %rax
	cmpq	-32(%rbp), %rax
	jne	.L19
	.loc 1 131 0
	movq	-8(%rbp), %rax
	movq	672(%rax), %rax
	movq	672(%rax), %rdx
	movq	-8(%rbp), %rax
	movq	%rdx, 672(%rax)
	jmp	.L18
.L19:
	.loc 1 134 0
	movq	-8(%rbp), %rax
	movq	672(%rax), %rax
	movq	%rax, -8(%rbp)
	jmp	.L18
.L24:
	.loc 1 129 0
	nop
.L18:
	movq	-8(%rbp), %rax
	movq	672(%rax), %rax
	testq	%rax, %rax
	jne	.L20
.L17:
	.loc 1 138 0
	movq	-40(%rbp), %rax
	movq	%rax, %rdi
	call	free
	.loc 1 139 0
	movq	-32(%rbp), %rax
	movq	%rax, %rdi
	call	free
	.loc 1 141 0
	movq	numberOfProcs(%rip), %rax
	subq	$1, %rax
	movq	%rax, numberOfProcs(%rip)
	.loc 1 142 0
	movq	numberOfProcs(%rip), %rax
	testq	%rax, %rax
	jne	.L21
	.loc 1 143 0
	movq	$0, tidRunning(%rip)
	.loc 1 144 0
	call	lwp_stop
	.loc 1 145 0
	jmp	.L23
.L21:
	.loc 1 147 0
	movq	-24(%rbp), %rax
	addq	$32, %rax
	movq	%rax, %rsi
	movl	$0, %edi
	call	swap_rfiles
.L23:
	.loc 1 150 0
	leave
	.cfi_def_cfa 7, 8
	ret
	.cfi_endproc
.LFE2:
	.size	lwp_exitOntoSafeStack, .-lwp_exitOntoSafeStack
.globl lwp_gettid
	.type	lwp_gettid, @function
lwp_gettid:
.LFB3:
	.loc 1 153 0
	.cfi_startproc
	pushq	%rbp
	.cfi_def_cfa_offset 16
	.cfi_offset 6, -16
	movq	%rsp, %rbp
	.cfi_def_cfa_register 6
	.loc 1 156 0
	movq	tidRunning(%rip), %rax
	.loc 1 157 0
	leave
	.cfi_def_cfa 7, 8
	ret
	.cfi_endproc
.LFE3:
	.size	lwp_gettid, .-lwp_gettid
.globl lwp_yield
	.type	lwp_yield, @function
lwp_yield:
.LFB4:
	.loc 1 160 0
	.cfi_startproc
	pushq	%rbp
	.cfi_def_cfa_offset 16
	.cfi_offset 6, -16
	movq	%rsp, %rbp
	.cfi_def_cfa_register 6
	subq	$16, %rsp
	.loc 1 163 0
	movq	tidRunning(%rip), %rax
	testq	%rax, %rax
	je	.L32
.L28:
	.loc 1 166 0
	movq	currentScheduler(%rip), %rax
	movq	32(%rax), %rax
	call	*%rax
	movq	%rax, -8(%rbp)
	.loc 1 167 0
	cmpq	$0, -8(%rbp)
	je	.L30
	.loc 1 168 0
	movq	tidRunning(%rip), %rax
	movq	%rax, %rdi
	call	tid2thread
	movq	-8(%rbp), %rdx
	movq	%rdx, %rsi
	movq	%rax, %rdi
	call	context_switch
	jmp	.L31
.L30:
	.loc 1 171 0
	call	lwp_stop
	jmp	.L31
.L32:
	.loc 1 164 0
	nop
.L31:
	.loc 1 175 0
	leave
	.cfi_def_cfa 7, 8
	ret
	.cfi_endproc
.LFE4:
	.size	lwp_yield, .-lwp_yield
.globl lwp_start
	.type	lwp_start, @function
lwp_start:
.LFB5:
	.loc 1 178 0
	.cfi_startproc
	pushq	%rbp
	.cfi_def_cfa_offset 16
	.cfi_offset 6, -16
	movq	%rsp, %rbp
	.cfi_def_cfa_register 6
	pushq	%rbx
	subq	$536, %rsp
	.loc 1 180 0
	movq	$0, rootContext(%rip)
	.loc 1 181 0
	leaq	-544(%rbp), %rbx
	.cfi_offset 3, -24
	movl	$0, %eax
	movl	$64, %edx
	movq	%rbx, %rdi
	movq	%rdx, %rcx
	rep stosq
	movb	$127, -544(%rbp)
	movb	$3, -543(%rbp)
	movb	$-128, -520(%rbp)
	movb	$31, -519(%rbp)
	movb	$-1, -516(%rbp)
	movb	$-1, -515(%rbp)
	movb	$37, -368(%rbp)
	movb	$37, -367(%rbp)
	movb	$37, -366(%rbp)
	movb	$37, -365(%rbp)
	movb	$37, -364(%rbp)
	movb	$37, -363(%rbp)
	movb	$37, -362(%rbp)
	movb	$37, -361(%rbp)
	movb	$37, -360(%rbp)
	movb	$37, -359(%rbp)
	movb	$37, -358(%rbp)
	movb	$37, -357(%rbp)
	movb	$37, -356(%rbp)
	movb	$37, -355(%rbp)
	movb	$37, -354(%rbp)
	movb	$37, -353(%rbp)
	movb	$-1, -328(%rbp)
	movb	$-1, -323(%rbp)
	movl	$rootContext+160, %edx
	leaq	-544(%rbp), %rbx
	movl	$64, %eax
	movq	%rdx, %rdi
	movq	%rbx, %rsi
	movq	%rax, %rcx
	rep movsq
	.loc 1 184 0
	movq	tidRunning(%rip), %rax
	testq	%rax, %rax
	jne	.L38
	movq	numberOfProcs(%rip), %rax
	testq	%rax, %rax
	je	.L39
.L35:
	.loc 1 187 0
	movq	currentScheduler(%rip), %rax
	movq	32(%rax), %rax
	call	*%rax
	movq	%rax, -24(%rbp)
	.loc 1 189 0
	cmpq	$0, -24(%rbp)
	je	.L37
	.loc 1 190 0
	movl	$0, %esi
	movl	$rootContext+32, %edi
	call	swap_rfiles
	.loc 1 192 0
	movq	-24(%rbp), %rax
	movq	%rax, %rsi
	movl	$rootContext, %edi
	call	context_switch
	jmp	.L37
.L38:
	.loc 1 185 0
	nop
	jmp	.L37
.L39:
	nop
.L37:
	.loc 1 196 0
	addq	$536, %rsp
	popq	%rbx
	leave
	.cfi_def_cfa 7, 8
	ret
	.cfi_endproc
.LFE5:
	.size	lwp_start, .-lwp_start
.globl lwp_stop
	.type	lwp_stop, @function
lwp_stop:
.LFB6:
	.loc 1 199 0
	.cfi_startproc
	pushq	%rbp
	.cfi_def_cfa_offset 16
	.cfi_offset 6, -16
	movq	%rsp, %rbp
	.cfi_def_cfa_register 6
	.loc 1 202 0
	movq	tidRunning(%rip), %rax
	testq	%rax, %rax
	je	.L44
.L41:
	.loc 1 205 0
	movq	tidRunning(%rip), %rax
	movq	%rax, %rdi
	call	tid2thread
	movl	$rootContext, %esi
	movq	%rax, %rdi
	call	context_switch
	jmp	.L43
.L44:
	.loc 1 203 0
	nop
.L43:
	.loc 1 206 0
	leave
	.cfi_def_cfa 7, 8
	ret
	.cfi_endproc
.LFE6:
	.size	lwp_stop, .-lwp_stop
.globl lwp_set_scheduler
	.type	lwp_set_scheduler, @function
lwp_set_scheduler:
.LFB7:
	.loc 1 209 0
	.cfi_startproc
	pushq	%rbp
	.cfi_def_cfa_offset 16
	.cfi_offset 6, -16
	movq	%rsp, %rbp
	.cfi_def_cfa_register 6
	subq	$32, %rsp
	movq	%rdi, -24(%rbp)
	.loc 1 214 0
	movq	-24(%rbp), %rax
	movq	(%rax), %rax
	testq	%rax, %rax
	je	.L46
	.loc 1 215 0
	movq	-24(%rbp), %rax
	movq	(%rax), %rax
	call	*%rax
.L46:
	.loc 1 217 0
	movl	$0, -12(%rbp)
	jmp	.L47
.L48:
	.loc 1 218 0
	movq	currentScheduler(%rip), %rax
	movq	32(%rax), %rax
	call	*%rax
	movq	%rax, -8(%rbp)
	.loc 1 219 0
	movq	currentScheduler(%rip), %rax
	movq	24(%rax), %rdx
	movq	-8(%rbp), %rax
	movq	%rax, %rdi
	call	*%rdx
	.loc 1 220 0
	movq	-24(%rbp), %rax
	movq	16(%rax), %rdx
	movq	-8(%rbp), %rax
	movq	%rax, %rdi
	call	*%rdx
	.loc 1 217 0
	addl	$1, -12(%rbp)
.L47:
	movl	-12(%rbp), %eax
	movslq	%eax, %rdx
	movq	numberOfProcs(%rip), %rax
	cmpq	%rax, %rdx
	jb	.L48
	.loc 1 222 0
	movq	currentScheduler(%rip), %rax
	movq	8(%rax), %rax
	testq	%rax, %rax
	je	.L49
	.loc 1 223 0
	movq	currentScheduler(%rip), %rax
	movq	8(%rax), %rax
	call	*%rax
.L49:
	.loc 1 225 0
	movq	-24(%rbp), %rax
	movq	%rax, currentScheduler(%rip)
	.loc 1 226 0
	leave
	.cfi_def_cfa 7, 8
	ret
	.cfi_endproc
.LFE7:
	.size	lwp_set_scheduler, .-lwp_set_scheduler
.globl lwp_get_scheduler
	.type	lwp_get_scheduler, @function
lwp_get_scheduler:
.LFB8:
	.loc 1 229 0
	.cfi_startproc
	pushq	%rbp
	.cfi_def_cfa_offset 16
	.cfi_offset 6, -16
	movq	%rsp, %rbp
	.cfi_def_cfa_register 6
	.loc 1 230 0
	movq	currentScheduler(%rip), %rax
	.loc 1 231 0
	leave
	.cfi_def_cfa 7, 8
	ret
	.cfi_endproc
.LFE8:
	.size	lwp_get_scheduler, .-lwp_get_scheduler
.globl tid2thread
	.type	tid2thread, @function
tid2thread:
.LFB9:
	.loc 1 234 0
	.cfi_startproc
	pushq	%rbp
	.cfi_def_cfa_offset 16
	.cfi_offset 6, -16
	movq	%rsp, %rbp
	.cfi_def_cfa_register 6
	movq	%rdi, -24(%rbp)
	.loc 1 237 0
	cmpq	$0, -24(%rbp)
	jne	.L61
	.loc 1 238 0
	movl	$rootContext, %eax
	jmp	.L55
.L61:
	.loc 1 240 0
	nop
.L60:
	.loc 1 243 0
	movq	rootThread(%rip), %rax
	movq	%rax, -8(%rbp)
	.loc 1 244 0
	jmp	.L56
.L58:
	.loc 1 245 0
	movq	-8(%rbp), %rax
	movq	(%rax), %rax
	cmpq	-24(%rbp), %rax
	jne	.L57
	.loc 1 246 0
	movq	-8(%rbp), %rax
	jmp	.L55
.L57:
	.loc 1 249 0
	movq	-8(%rbp), %rax
	movq	672(%rax), %rax
	movq	%rax, -8(%rbp)
.L56:
	.loc 1 244 0
	cmpq	$0, -8(%rbp)
	jne	.L58
	.loc 1 253 0
	movl	$0, %eax
.L55:
	.loc 1 254 0
	leave
	.cfi_def_cfa 7, 8
	ret
	.cfi_endproc
.LFE9:
	.size	tid2thread, .-tid2thread
.globl rr_next
	.type	rr_next, @function
rr_next:
.LFB10:
	.loc 1 257 0
	.cfi_startproc
	pushq	%rbp
	.cfi_def_cfa_offset 16
	.cfi_offset 6, -16
	movq	%rsp, %rbp
	.cfi_def_cfa_register 6
	.loc 1 261 0
	movq	next.3497(%rip), %rax
	testq	%rax, %rax
	jne	.L63
	.loc 1 262 0
	movq	rootOfSched(%rip), %rax
	movq	%rax, next.3497(%rip)
	.loc 1 263 0
	jmp	.L64
.L65:
	.loc 1 264 0
	movq	next.3497(%rip), %rax
	movq	696(%rax), %rax
	movq	%rax, next.3497(%rip)
.L64:
	.loc 1 263 0
	movq	next.3497(%rip), %rax
	movq	696(%rax), %rax
	testq	%rax, %rax
	jne	.L65
.L63:
	.loc 1 267 0
	movq	next.3497(%rip), %rax
	movq	%rax, -8(%rbp)
	.loc 1 268 0
	movq	numberOfProcs(%rip), %rax
	testq	%rax, %rax
	jne	.L66
	.loc 1 269 0
	movl	$0, %eax
	jmp	.L67
.L66:
	.loc 1 272 0
	movq	next.3497(%rip), %rax
	movq	688(%rax), %rax
	testq	%rax, %rax
	je	.L73
	.loc 1 273 0
	movq	next.3497(%rip), %rax
	movq	688(%rax), %rax
	movq	%rax, next.3497(%rip)
	jmp	.L69
.L71:
	.loc 1 278 0
	movq	next.3497(%rip), %rax
	movq	696(%rax), %rax
	movq	%rax, next.3497(%rip)
	jmp	.L70
.L73:
	.loc 1 277 0
	nop
.L70:
	movq	next.3497(%rip), %rax
	movq	696(%rax), %rax
	testq	%rax, %rax
	jne	.L71
.L69:
	.loc 1 281 0
	movq	-8(%rbp), %rax
.L67:
	.loc 1 282 0
	leave
	.cfi_def_cfa 7, 8
	ret
	.cfi_endproc
.LFE10:
	.size	rr_next, .-rr_next
.globl rr_admit
	.type	rr_admit, @function
rr_admit:
.LFB11:
	.loc 1 285 0
	.cfi_startproc
	pushq	%rbp
	.cfi_def_cfa_offset 16
	.cfi_offset 6, -16
	movq	%rsp, %rbp
	.cfi_def_cfa_register 6
	movq	%rdi, -8(%rbp)
	.loc 1 288 0
	movq	rootOfSched(%rip), %rax
	testq	%rax, %rax
	jne	.L75
	.loc 1 289 0
	movq	-8(%rbp), %rax
	movq	%rax, rootOfSched(%rip)
	jmp	.L77
.L75:
	.loc 1 292 0
	movq	rootOfSched(%rip), %rdx
	movq	-8(%rbp), %rax
	movq	%rdx, 696(%rax)
	.loc 1 293 0
	movq	rootOfSched(%rip), %rax
	movq	-8(%rbp), %rdx
	movq	%rdx, 688(%rax)
	.loc 1 294 0
	movq	-8(%rbp), %rax
	movq	%rax, rootOfSched(%rip)
.L77:
	.loc 1 296 0
	leave
	.cfi_def_cfa 7, 8
	ret
	.cfi_endproc
.LFE11:
	.size	rr_admit, .-rr_admit
.globl rr_remove
	.type	rr_remove, @function
rr_remove:
.LFB12:
	.loc 1 299 0
	.cfi_startproc
	pushq	%rbp
	.cfi_def_cfa_offset 16
	.cfi_offset 6, -16
	movq	%rsp, %rbp
	.cfi_def_cfa_register 6
	movq	%rdi, -24(%rbp)
	.loc 1 302 0
	movq	-24(%rbp), %rax
	movq	696(%rax), %rax
	movq	%rax, -8(%rbp)
	.loc 1 303 0
	cmpq	$0, -8(%rbp)
	je	.L79
	.loc 1 304 0
	movq	-24(%rbp), %rax
	movq	688(%rax), %rdx
	movq	-8(%rbp), %rax
	movq	%rdx, 688(%rax)
.L79:
	.loc 1 306 0
	movq	-24(%rbp), %rax
	movq	688(%rax), %rax
	movq	%rax, -8(%rbp)
	.loc 1 307 0
	cmpq	$0, -8(%rbp)
	je	.L80
	.loc 1 308 0
	movq	-24(%rbp), %rax
	movq	696(%rax), %rdx
	movq	-8(%rbp), %rax
	movq	%rdx, 696(%rax)
.L80:
	.loc 1 310 0
	movq	rootOfSched(%rip), %rax
	cmpq	%rax, -24(%rbp)
	jne	.L82
	.loc 1 311 0
	movq	-24(%rbp), %rax
	movq	696(%rax), %rax
	movq	%rax, rootOfSched(%rip)
.L82:
	.loc 1 313 0
	leave
	.cfi_def_cfa 7, 8
	ret
	.cfi_endproc
.LFE12:
	.size	rr_remove, .-rr_remove
.globl context_switch
	.type	context_switch, @function
context_switch:
.LFB13:
	.loc 1 319 0
	.cfi_startproc
	pushq	%rbp
	.cfi_def_cfa_offset 16
	.cfi_offset 6, -16
	movq	%rsp, %rbp
	.cfi_def_cfa_register 6
	subq	$16, %rsp
	movq	%rdi, -8(%rbp)
	movq	%rsi, -16(%rbp)
	.loc 1 326 0
	movq	-16(%rbp), %rax
	movq	(%rax), %rax
	movq	%rax, tidRunning(%rip)
	.loc 1 346 0
	movq	-16(%rbp), %rax
	leaq	32(%rax), %rdx
	movq	-8(%rbp), %rax
	addq	$32, %rax
	movq	%rdx, %rsi
	movq	%rax, %rdi
	call	swap_rfiles
	.loc 1 347 0
	leave
	.cfi_def_cfa 7, 8
	ret
	.cfi_endproc
.LFE13:
	.size	context_switch, .-context_switch
	.local	next.3497
	.comm	next.3497,8,8
	.data
	.align 4
	.type	tid.3311, @object
	.size	tid.3311, 4
tid.3311:
	.long	1
	.text
.Letext0:
	.file 2 "/usr/lib/gcc/x86_64-redhat-linux/4.4.7/include/stddef.h"
	.file 3 "/usr/include/stdint.h"
	.file 4 "fp.h"
	.file 5 "lwp.h"
	.section	.note.GNU-stack,"",@progbits
